target datalayout = "e-m:e-p270:32:32-p271:32:32-p272:64:64-i64:64-i128:128-f80:128-n8:16:32:64-S128"
target triple = "x86_64-pc-linux-gnu"

%struct.lua_TValue = type { %union.Value, [1 x i32], i32 }
%union.Value = type { ptr }
%struct.lua_State = type { i8, i8, i8, i8, i8, i8, i8, ptr, ptr, ptr, ptr, ptr, ptr, ptr, ptr, i32, i32, i16, i16, i32, ptr, ptr, ptr, ptr, ptr }
%struct.GCheader = type { i8, i8, i8 }
%struct.global_State = type { %struct.stringtable, ptr, ptr, i8, i8, ptr, ptr, ptr, i64, i64, i32, i32, i32, [40 x ptr], [40 x ptr], ptr, ptr, ptr, [256 x i64], ptr, %struct.UpVal, [11 x ptr], [11 x ptr], [21 x ptr], %struct.lua_TValue, %struct.lua_TValue, i32, ptr, i64, [4 x i64], %struct.lua_Callbacks, %struct.lua_ExecutionCallbacks, [128 x ptr], [128 x ptr], [128 x ptr], %struct.GCStats }
%struct.stringtable = type { ptr, i32, i32 }
%struct.UpVal = type { i8, i8, i8, i8, ptr, %union.anon.3 }
%union.anon.3 = type { %struct.anon.4 }
%struct.anon.4 = type { ptr, ptr, ptr }
%struct.lua_Callbacks = type { ptr, ptr, ptr, ptr, ptr, ptr, ptr, ptr, ptr, ptr }
%struct.lua_ExecutionCallbacks = type { ptr, ptr, ptr, ptr, ptr, ptr, ptr }
%struct.GCStats = type { [32 x i32], i32, i32, i64, i64, i64, double, double, double }
%struct.Udata = type { i8, i8, i8, i8, i32, ptr, %union.anon }
%union.anon = type { %union.L_Umaxalign }
%union.L_Umaxalign = type { double }
%struct.LuaTable = type { i8, i8, i8, i8, i8, i8, i8, i8, i32, %union.anon.2, ptr, ptr, ptr, ptr }
%union.anon.2 = type { i32 }

@luaO_nilobject_ = external hidden global %struct.lua_TValue, align 8

; Function Attrs: alwaysinline mustprogress uwtable
define internal noundef ptr @_ZL10index2addrP9lua_Statei(ptr noundef %0, i32 noundef %1) #2 {
  %3 = alloca ptr, align 8
  %4 = alloca ptr, align 8
  %5 = alloca i32, align 4
  %6 = alloca ptr, align 8
  %7 = alloca i32, align 4
  store ptr %0, ptr %4, align 8, !tbaa !4
  store i32 %1, ptr %5, align 4, !tbaa !9
  %8 = load i32, ptr %5, align 4, !tbaa !9
  %9 = icmp sgt i32 %8, 0
  br i1 %9, label %10, label %27

10:                                               ; preds = %2
  call void @llvm.lifetime.start.p0(i64 8, ptr %6) #11
  %11 = load ptr, ptr %4, align 8, !tbaa !4
  %12 = getelementptr inbounds nuw %struct.lua_State, ptr %11, i32 0, i32 8
  %13 = load ptr, ptr %12, align 8, !tbaa !13
  %14 = load i32, ptr %5, align 4, !tbaa !9
  %15 = sub nsw i32 %14, 1
  %16 = sext i32 %15 to i64
  %17 = getelementptr inbounds %struct.lua_TValue, ptr %13, i64 %16
  store ptr %17, ptr %6, align 8, !tbaa !11
  %18 = load ptr, ptr %6, align 8, !tbaa !11
  %19 = load ptr, ptr %4, align 8, !tbaa !4
  %20 = getelementptr inbounds nuw %struct.lua_State, ptr %19, i32 0, i32 7
  %21 = load ptr, ptr %20, align 8, !tbaa !23
  %22 = icmp uge ptr %18, %21
  br i1 %22, label %23, label %24

23:                                               ; preds = %10
  store ptr @luaO_nilobject_, ptr %3, align 8
  store i32 1, ptr %7, align 4
  br label %26

24:                                               ; preds = %10
  %25 = load ptr, ptr %6, align 8, !tbaa !11
  store ptr %25, ptr %3, align 8
  store i32 1, ptr %7, align 4
  br label %26

26:                                               ; preds = %24, %23
  call void @llvm.lifetime.end.p0(i64 8, ptr %6) #11
  br label %41

27:                                               ; preds = %2
  %28 = load i32, ptr %5, align 4, !tbaa !9
  %29 = icmp sgt i32 %28, -10000
  br i1 %29, label %30, label %37

30:                                               ; preds = %27
  %31 = load ptr, ptr %4, align 8, !tbaa !4
  %32 = getelementptr inbounds nuw %struct.lua_State, ptr %31, i32 0, i32 7
  %33 = load ptr, ptr %32, align 8, !tbaa !23
  %34 = load i32, ptr %5, align 4, !tbaa !9
  %35 = sext i32 %34 to i64
  %36 = getelementptr inbounds %struct.lua_TValue, ptr %33, i64 %35
  store ptr %36, ptr %3, align 8
  br label %41

37:                                               ; preds = %27
  %38 = load ptr, ptr %4, align 8, !tbaa !4
  %39 = load i32, ptr %5, align 4, !tbaa !9
  %40 = call noundef ptr @_ZL11pseudo2addrP9lua_Statei(ptr noundef %38, i32 noundef %39)
  store ptr %40, ptr %3, align 8
  br label %41

41:                                               ; preds = %37, %30, %26
  %42 = load ptr, ptr %3, align 8
  ret ptr %42
}

; Function Attrs: mustprogress uwtable
define dso_local noundef i32 @_Z16lua_setmetatableP9lua_Statei(ptr noundef %0, i32 noundef %1) #0 {
  %3 = alloca ptr, align 8
  %4 = alloca i32, align 4
  %5 = alloca ptr, align 8
  %6 = alloca ptr, align 8
  store ptr %0, ptr %3, align 8, !tbaa !4
  store i32 %1, ptr %4, align 4, !tbaa !9
  call void @llvm.lifetime.start.p0(i64 8, ptr %5) #11
  %7 = load ptr, ptr %3, align 8, !tbaa !4
  %8 = load i32, ptr %4, align 4, !tbaa !9
  %9 = call noundef ptr @_ZL10index2addrP9lua_Statei(ptr noundef %7, i32 noundef %8)
  store ptr %9, ptr %5, align 8, !tbaa !11
  call void @llvm.lifetime.start.p0(i64 8, ptr %6) #11
  store ptr null, ptr %6, align 8, !tbaa !92
  %10 = load ptr, ptr %3, align 8, !tbaa !4
  %11 = getelementptr inbounds nuw %struct.lua_State, ptr %10, i32 0, i32 7
  %12 = load ptr, ptr %11, align 8, !tbaa !23
  %13 = getelementptr inbounds %struct.lua_TValue, ptr %12, i64 -1
  %14 = getelementptr inbounds nuw %struct.lua_TValue, ptr %13, i32 0, i32 2
  %15 = load i32, ptr %14, align 4, !tbaa !49
  %16 = icmp eq i32 %15, 0
  br i1 %16, label %24, label %17

17:                                               ; preds = %2
  %18 = load ptr, ptr %3, align 8, !tbaa !4
  %19 = getelementptr inbounds nuw %struct.lua_State, ptr %18, i32 0, i32 7
  %20 = load ptr, ptr %19, align 8, !tbaa !23
  %21 = getelementptr inbounds %struct.lua_TValue, ptr %20, i64 -1
  %22 = getelementptr inbounds nuw %struct.lua_TValue, ptr %21, i32 0, i32 0
  %23 = load ptr, ptr %22, align 8, !tbaa !25
  store ptr %23, ptr %6, align 8, !tbaa !92
  br label %24

24:                                               ; preds = %17, %2
  %25 = load ptr, ptr %5, align 8, !tbaa !11
  %26 = getelementptr inbounds nuw %struct.lua_TValue, ptr %25, i32 0, i32 2
  %27 = load i32, ptr %26, align 4, !tbaa !49
  switch i32 %27, label %109 [
    i32 6, label %28
    i32 8, label %73
  ]

28:                                               ; preds = %24
  %29 = load ptr, ptr %5, align 8, !tbaa !11
  %30 = getelementptr inbounds nuw %struct.lua_TValue, ptr %29, i32 0, i32 0
  %31 = load ptr, ptr %30, align 8, !tbaa !25
  %32 = getelementptr inbounds nuw %struct.LuaTable, ptr %31, i32 0, i32 4
  %33 = load i8, ptr %32, align 4, !tbaa !93
  %34 = icmp ne i8 %33, 0
  br i1 %34, label %35, label %37

35:                                               ; preds = %28
  %36 = load ptr, ptr %3, align 8, !tbaa !4
  call void @_Z18luaG_readonlyerrorP9lua_State(ptr noundef %36) #13
  unreachable

37:                                               ; preds = %28
  %38 = load ptr, ptr %6, align 8, !tbaa !92
  %39 = load ptr, ptr %5, align 8, !tbaa !11
  %40 = getelementptr inbounds nuw %struct.lua_TValue, ptr %39, i32 0, i32 0
  %41 = load ptr, ptr %40, align 8, !tbaa !25
  %42 = getelementptr inbounds nuw %struct.LuaTable, ptr %41, i32 0, i32 10
  store ptr %38, ptr %42, align 8, !tbaa !97
  %43 = load ptr, ptr %6, align 8, !tbaa !92
  %44 = icmp ne ptr %43, null
  br i1 %44, label %45, label %72

45:                                               ; preds = %37
  %46 = load ptr, ptr %5, align 8, !tbaa !11
  %47 = getelementptr inbounds nuw %struct.lua_TValue, ptr %46, i32 0, i32 0
  %48 = load ptr, ptr %47, align 8, !tbaa !25
  %49 = getelementptr inbounds %struct.LuaTable, ptr %48, i64 0
  %50 = getelementptr inbounds nuw %struct.GCheader, ptr %49, i32 0, i32 1
  %51 = load i8, ptr %50, align 1, !tbaa !25
  %52 = zext i8 %51 to i32
  %53 = and i32 %52, 4
  %54 = icmp ne i32 %53, 0
  br i1 %54, label %55, label %71

55:                                               ; preds = %45
  %56 = load ptr, ptr %6, align 8, !tbaa !92
  %57 = getelementptr inbounds %struct.LuaTable, ptr %56, i64 0
  %58 = getelementptr inbounds nuw %struct.GCheader, ptr %57, i32 0, i32 1
  %59 = load i8, ptr %58, align 1, !tbaa !25
  %60 = zext i8 %59 to i32
  %61 = and i32 %60, 3
  %62 = icmp ne i32 %61, 0
  br i1 %62, label %63, label %71

63:                                               ; preds = %55
  %64 = load ptr, ptr %3, align 8, !tbaa !4
  %65 = load ptr, ptr %5, align 8, !tbaa !11
  %66 = getelementptr inbounds nuw %struct.lua_TValue, ptr %65, i32 0, i32 0
  %67 = load ptr, ptr %66, align 8, !tbaa !25
  %68 = getelementptr inbounds %struct.LuaTable, ptr %67, i64 0
  %69 = load ptr, ptr %6, align 8, !tbaa !92
  %70 = getelementptr inbounds %struct.LuaTable, ptr %69, i64 0
  call void @_Z13luaC_barrierfP9lua_StateP8GCObjectS2_(ptr noundef %64, ptr noundef %68, ptr noundef %70)
  br label %71

71:                                               ; preds = %63, %55, %45
  br label %72

72:                                               ; preds = %71, %37
  br label %120

73:                                               ; preds = %24
  %74 = load ptr, ptr %6, align 8, !tbaa !92
  %75 = load ptr, ptr %5, align 8, !tbaa !11
  %76 = getelementptr inbounds nuw %struct.lua_TValue, ptr %75, i32 0, i32 0
  %77 = load ptr, ptr %76, align 8, !tbaa !25
  %78 = getelementptr inbounds nuw %struct.Udata, ptr %77, i32 0, i32 5
  store ptr %74, ptr %78, align 8, !tbaa !98
  %79 = load ptr, ptr %6, align 8, !tbaa !92
  %80 = icmp ne ptr %79, null
  br i1 %80, label %81, label %108

81:                                               ; preds = %73
  %82 = load ptr, ptr %5, align 8, !tbaa !11
  %83 = getelementptr inbounds nuw %struct.lua_TValue, ptr %82, i32 0, i32 0
  %84 = load ptr, ptr %83, align 8, !tbaa !25
  %85 = getelementptr inbounds %struct.Udata, ptr %84, i64 0
  %86 = getelementptr inbounds nuw %struct.GCheader, ptr %85, i32 0, i32 1
  %87 = load i8, ptr %86, align 1, !tbaa !25
  %88 = zext i8 %87 to i32
  %89 = and i32 %88, 4
  %90 = icmp ne i32 %89, 0
  br i1 %90, label %91, label %107

91:                                               ; preds = %81
  %92 = load ptr, ptr %6, align 8, !tbaa !92
  %93 = getelementptr inbounds %struct.LuaTable, ptr %92, i64 0
  %94 = getelementptr inbounds nuw %struct.GCheader, ptr %93, i32 0, i32 1
  %95 = load i8, ptr %94, align 1, !tbaa !25
  %96 = zext i8 %95 to i32
  %97 = and i32 %96, 3
  %98 = icmp ne i32 %97, 0
  br i1 %98, label %99, label %107

99:                                               ; preds = %91
  %100 = load ptr, ptr %3, align 8, !tbaa !4
  %101 = load ptr, ptr %5, align 8, !tbaa !11
  %102 = getelementptr inbounds nuw %struct.lua_TValue, ptr %101, i32 0, i32 0
  %103 = load ptr, ptr %102, align 8, !tbaa !25
  %104 = getelementptr inbounds %struct.Udata, ptr %103, i64 0
  %105 = load ptr, ptr %6, align 8, !tbaa !92
  %106 = getelementptr inbounds %struct.LuaTable, ptr %105, i64 0
  call void @_Z13luaC_barrierfP9lua_StateP8GCObjectS2_(ptr noundef %100, ptr noundef %104, ptr noundef %106)
  br label %107

107:                                              ; preds = %99, %91, %81
  br label %108

108:                                              ; preds = %107, %73
  br label %120

109:                                              ; preds = %24
  %110 = load ptr, ptr %6, align 8, !tbaa !92
  %111 = load ptr, ptr %3, align 8, !tbaa !4
  %112 = getelementptr inbounds nuw %struct.lua_State, ptr %111, i32 0, i32 9
  %113 = load ptr, ptr %112, align 8, !tbaa !33
  %114 = getelementptr inbounds nuw %struct.global_State, ptr %113, i32 0, i32 21
  %115 = load ptr, ptr %5, align 8, !tbaa !11
  %116 = getelementptr inbounds nuw %struct.lua_TValue, ptr %115, i32 0, i32 2
  %117 = load i32, ptr %116, align 4, !tbaa !49
  %118 = sext i32 %117 to i64
  %119 = getelementptr inbounds [11 x ptr], ptr %114, i64 0, i64 %118
  store ptr %110, ptr %119, align 8, !tbaa !92
  br label %120

120:                                              ; preds = %109, %108, %72
  %121 = load ptr, ptr %3, align 8, !tbaa !4
  %122 = getelementptr inbounds nuw %struct.lua_State, ptr %121, i32 0, i32 7
  %123 = load ptr, ptr %122, align 8, !tbaa !23
  %124 = getelementptr inbounds %struct.lua_TValue, ptr %123, i32 -1
  store ptr %124, ptr %122, align 8, !tbaa !23
  call void @llvm.lifetime.end.p0(i64 8, ptr %6) #11
  call void @llvm.lifetime.end.p0(i64 8, ptr %5) #11
  ret i32 1
}