; Function Attrs: mustprogress uwtable
define dso_local noundef i32 @_Z16lua_setmetatableP9lua_Statei(ptr noundef %0, i32 noundef %1) local_unnamed_addr #3 {
  %3 = icmp sgt i32 %1, 0
  br i1 %3, label %4, label %12

4:                                                ; preds = %2
  %5 = getelementptr inbounds nuw i8, ptr %0, i64 16
  %6 = load ptr, ptr %5, align 8, !tbaa !4
  %7 = zext nneg i32 %1 to i64
  %8 = getelementptr %struct.lua_TValue, ptr %6, i64 %7
  %9 = getelementptr i8, ptr %8, i64 -16
  %10 = getelementptr inbounds nuw i8, ptr %0, i64 8
  %11 = load ptr, ptr %10, align 8, !tbaa !19
  %.not.i = icmp ult ptr %9, %11
  %.luaO_nilobject_.i = select i1 %.not.i, ptr %9, ptr @luaO_nilobject_
  br label %_ZL10index2addrP9lua_Statei.exit

12:                                               ; preds = %2
  %13 = icmp sgt i32 %1, -10000
  br i1 %13, label %14, label %19

14:                                               ; preds = %12
  %15 = getelementptr inbounds nuw i8, ptr %0, i64 8
  %16 = load ptr, ptr %15, align 8, !tbaa !19
  %17 = sext i32 %1 to i64
  %18 = getelementptr inbounds %struct.lua_TValue, ptr %16, i64 %17
  br label %_ZL10index2addrP9lua_Statei.exit

19:                                               ; preds = %12
  %20 = tail call fastcc noundef ptr @_ZL11pseudo2addrP9lua_Statei(ptr noundef %0, i32 noundef %1)
  %.phi.trans.insert = getelementptr inbounds nuw i8, ptr %0, i64 8
  %.pre = load ptr, ptr %.phi.trans.insert, align 8, !tbaa !19
  br label %_ZL10index2addrP9lua_Statei.exit

_ZL10index2addrP9lua_Statei.exit:                 ; preds = %4, %14, %19
  %21 = phi ptr [ %11, %4 ], [ %16, %14 ], [ %.pre, %19 ]
  %.1.i = phi ptr [ %.luaO_nilobject_.i, %4 ], [ %18, %14 ], [ %20, %19 ]
  %22 = getelementptr inbounds i8, ptr %21, i64 -4
  %23 = load i32, ptr %22, align 4, !tbaa !47
  %24 = icmp eq i32 %23, 0
  br i1 %24, label %28, label %25

25:                                               ; preds = %_ZL10index2addrP9lua_Statei.exit
  %26 = getelementptr inbounds i8, ptr %21, i64 -16
  %27 = load ptr, ptr %26, align 8, !tbaa !21
  br label %28

28:                                               ; preds = %25, %_ZL10index2addrP9lua_Statei.exit
  %.0 = phi ptr [ null, %_ZL10index2addrP9lua_Statei.exit ], [ %27, %25 ]
  %29 = getelementptr inbounds nuw i8, ptr %.1.i, i64 12
  %30 = load i32, ptr %29, align 4, !tbaa !47
  switch i32 %30, label %61 [
    i32 6, label %31
    i32 8, label %48
  ]

31:                                               ; preds = %28
  %32 = load ptr, ptr %.1.i, align 8, !tbaa !21
  %33 = getelementptr inbounds nuw i8, ptr %32, i64 4
  %34 = load i8, ptr %33, align 4, !tbaa !76
  %.not28 = icmp eq i8 %34, 0
  br i1 %.not28, label %36, label %35

35:                                               ; preds = %31
  tail call void @_Z18luaG_readonlyerrorP9lua_State(ptr noundef nonnull %0) #21
  unreachable

36:                                               ; preds = %31
  %37 = getelementptr inbounds nuw i8, ptr %32, i64 16
  store ptr %.0, ptr %37, align 8, !tbaa !80
  %.not29 = icmp eq ptr %.0, null
  br i1 %.not29, label %67, label %38

38:                                               ; preds = %36
  %39 = load ptr, ptr %.1.i, align 8, !tbaa !21
  %40 = getelementptr inbounds nuw i8, ptr %39, i64 1
  %41 = load i8, ptr %40, align 1, !tbaa !21
  %42 = and i8 %41, 4
  %.not30 = icmp eq i8 %42, 0
  br i1 %.not30, label %67, label %43

43:                                               ; preds = %38
  %44 = getelementptr inbounds nuw i8, ptr %.0, i64 1
  %45 = load i8, ptr %44, align 1, !tbaa !21
  %46 = and i8 %45, 3
  %.not31 = icmp eq i8 %46, 0
  br i1 %.not31, label %67, label %47

47:                                               ; preds = %43
  tail call void @_Z13luaC_barrierfP9lua_StateP8GCObjectS2_(ptr noundef nonnull %0, ptr noundef nonnull %39, ptr noundef nonnull %.0)
  br label %67

48:                                               ; preds = %28
  %49 = load ptr, ptr %.1.i, align 8, !tbaa !21
  %50 = getelementptr inbounds nuw i8, ptr %49, i64 8
  store ptr %.0, ptr %50, align 8, !tbaa !81
  %.not = icmp eq ptr %.0, null
  br i1 %.not, label %67, label %51

51:                                               ; preds = %48
  %52 = load ptr, ptr %.1.i, align 8, !tbaa !21
  %53 = getelementptr inbounds nuw i8, ptr %52, i64 1
  %54 = load i8, ptr %53, align 1, !tbaa !21
  %55 = and i8 %54, 4
  %.not26 = icmp eq i8 %55, 0
  br i1 %.not26, label %67, label %56

56:                                               ; preds = %51
  %57 = getelementptr inbounds nuw i8, ptr %.0, i64 1
  %58 = load i8, ptr %57, align 1, !tbaa !21
  %59 = and i8 %58, 3
  %.not27 = icmp eq i8 %59, 0
  br i1 %.not27, label %67, label %60

60:                                               ; preds = %56
  tail call void @_Z13luaC_barrierfP9lua_StateP8GCObjectS2_(ptr noundef nonnull %0, ptr noundef nonnull %52, ptr noundef nonnull %.0)
  br label %67

61:                                               ; preds = %28
  %62 = getelementptr inbounds nuw i8, ptr %0, i64 24
  %63 = load ptr, ptr %62, align 8, !tbaa !30
  %64 = getelementptr inbounds nuw i8, ptr %63, i64 2856
  %65 = sext i32 %30 to i64
  %66 = getelementptr inbounds [11 x ptr], ptr %64, i64 0, i64 %65
  store ptr %.0, ptr %66, align 8, !tbaa !74
  br label %67

67:                                               ; preds = %48, %60, %56, %51, %36, %47, %43, %38, %61
  %68 = getelementptr inbounds nuw i8, ptr %0, i64 8
  %69 = load ptr, ptr %68, align 8, !tbaa !19
  %70 = getelementptr inbounds i8, ptr %69, i64 -16
  store ptr %70, ptr %68, align 8, !tbaa !19
  ret i32 1
}